target datalayout = "e-m:e-p270:32:32-p271:32:32-p272:64:64-i64:64-i128:128-f80:128-n8:16:32:64-S128"
target triple = "x86_64-unknown-linux-gnu"

%"class.base::SampleMap" = type { %"class.base::HistogramSamples", %"class.std::map" }
%"class.base::HistogramSamples" = type { ptr, %"struct.base::HistogramSamples::Metadata", ptr }
%"struct.base::HistogramSamples::Metadata" = type <{ i64, i64, i32, [4 x i8] }>
%"class.std::map" = type { %"class.std::_Rb_tree" }
%"class.std::_Rb_tree" = type { %"struct.std::_Rb_tree<int, std::pair<const int, int>, std::_Select1st<std::pair<const int, int>>, std::less<int>>::_Rb_tree_impl" }
%"struct.std::_Rb_tree<int, std::pair<const int, int>, std::_Select1st<std::pair<const int, int>>, std::less<int>>::_Rb_tree_impl" = type { %"struct.std::_Rb_tree_key_compare", %"struct.std::_Rb_tree_header" }
%"struct.std::_Rb_tree_key_compare" = type { %"struct.std::less" }
%"struct.std::less" = type { i8 }
%"struct.std::_Rb_tree_header" = type { %"struct.std::_Rb_tree_node_base", i64 }
%"struct.std::_Rb_tree_node_base" = type { i32, ptr, ptr, ptr }

; Function Attrs: mustprogress uwtable
define dso_local noundef zeroext i1 @_ZN4base9SampleMap15AddSubtractImplEPNS_19SampleCountIteratorENS_16HistogramSamples8OperatorE(ptr noundef nonnull align 8 dereferenceable(88) %this, ptr noundef %iter, i32 noundef %op) unnamed_addr #0 align 2 {
entry:
  %retval = alloca i1, align 1
  %this.addr = alloca ptr, align 8
  %iter.addr = alloca ptr, align 8
  %op.addr = alloca i32, align 4
  %min = alloca i32, align 4
  %max = alloca i32, align 4
  %count = alloca i32, align 4
  store ptr %this, ptr %this.addr, align 8
  store ptr %iter, ptr %iter.addr, align 8
  store i32 %op, ptr %op.addr, align 4
  %this1 = load ptr, ptr %this.addr, align 8
  br label %for.cond

for.cond:                                         ; preds = %for.inc, %entry
  %0 = load ptr, ptr %iter.addr, align 8
  %vtable = load ptr, ptr %0, align 8
  %vfn = getelementptr inbounds ptr, ptr %vtable, i64 2
  %1 = load ptr, ptr %vfn, align 8
  %call = call noundef zeroext i1 %1(ptr noundef nonnull align 8 dereferenceable(8) %0)
  %lnot = xor i1 %call, true
  br i1 %lnot, label %for.body, label %for.end

for.body:                                         ; preds = %for.cond
  %2 = load ptr, ptr %iter.addr, align 8
  %vtable2 = load ptr, ptr %2, align 8
  %vfn3 = getelementptr inbounds ptr, ptr %vtable2, i64 4
  %3 = load ptr, ptr %vfn3, align 8
  call void %3(ptr noundef nonnull align 8 dereferenceable(8) %2, ptr noundef %min, ptr noundef %max, ptr noundef %count)
  %4 = load i32, ptr %min, align 4
  %add = add nsw i32 %4, 1
  %5 = load i32, ptr %max, align 4
  %cmp = icmp ne i32 %add, %5
  br i1 %cmp, label %if.then, label %if.end

if.then:                                          ; preds = %for.body
  store i1 false, ptr %retval, align 1
  br label %return

if.end:                                           ; preds = %for.body
  %6 = load i32, ptr %op.addr, align 4
  %cmp4 = icmp eq i32 %6, 0
  br i1 %cmp4, label %cond.true, label %cond.false

cond.true:                                        ; preds = %if.end
  %7 = load i32, ptr %count, align 4
  br label %cond.end

cond.false:                                       ; preds = %if.end
  %8 = load i32, ptr %count, align 4
  %sub = sub nsw i32 0, %8
  br label %cond.end

cond.end:                                         ; preds = %cond.false, %cond.true
  %cond = phi i32 [ %7, %cond.true ], [ %sub, %cond.false ]
  %sample_counts_ = getelementptr inbounds %"class.base::SampleMap", ptr %this1, i32 0, i32 1
  %call5 = call noundef nonnull align 4 dereferenceable(4) ptr @_ZNSt3mapIiiSt4lessIiESaISt4pairIKiiEEEixERS3_(ptr noundef nonnull align 8 dereferenceable(48) %sample_counts_, ptr noundef nonnull align 4 dereferenceable(4) %min)
  %9 = load i32, ptr %call5, align 4
  %add6 = add nsw i32 %9, %cond
  store i32 %add6, ptr %call5, align 4
  br label %for.inc

for.inc:                                          ; preds = %cond.end
  %10 = load ptr, ptr %iter.addr, align 8
  %vtable7 = load ptr, ptr %10, align 8
  %vfn8 = getelementptr inbounds ptr, ptr %vtable7, i64 3
  %11 = load ptr, ptr %vfn8, align 8
  call void %11(ptr noundef nonnull align 8 dereferenceable(8) %10)
  br label %for.cond, !llvm.loop !5

for.end:                                          ; preds = %for.cond
  store i1 true, ptr %retval, align 1
  br label %return

return:                                           ; preds = %for.end, %if.then
  %12 = load i1, ptr %retval, align 1
  ret i1 %12
}