; Function Attrs: mustprogress uwtable
define dso_local noundef zeroext i1 @_ZN4base9SampleMap15AddSubtractImplEPNS_19SampleCountIteratorENS_16HistogramSamples8OperatorE(ptr noundef nonnull align 8 dereferenceable(88) %this, ptr noundef %iter, i32 noundef %op) unnamed_addr #0 align 2 {
entry:
  %min = alloca i32, align 4
  %max = alloca i32, align 4
  %count = alloca i32, align 4
  %vtable3 = load ptr, ptr %iter, align 8
  %vfn4 = getelementptr inbounds i8, ptr %vtable3, i64 16
  %0 = load ptr, ptr %vfn4, align 8
  %call6 = tail call noundef zeroext i1 %0(ptr noundef nonnull align 8 dereferenceable(8) %iter)
  br i1 %call6, label %return, label %for.body.lr.ph

for.body.lr.ph:                                   ; preds = %entry
  %cmp4 = icmp eq i32 %op, 0
  %sample_counts_ = getelementptr inbounds i8, ptr %this, i64 40
  %vtable2.us15 = load ptr, ptr %iter, align 8
  %vfn3.us16 = getelementptr inbounds i8, ptr %vtable2.us15, i64 32
  %1 = load ptr, ptr %vfn3.us16, align 8
  call void %1(ptr noundef nonnull align 8 dereferenceable(8) %iter, ptr noundef nonnull %min, ptr noundef nonnull %max, ptr noundef nonnull %count)
  %2 = load i32, ptr %min, align 4
  %add.us17 = add nsw i32 %2, 1
  %3 = load i32, ptr %max, align 4
  %cmp.not.us18 = icmp eq i32 %add.us17, %3
  br i1 %cmp4, label %for.body.lr.ph.split.us, label %for.body.lr.ph.split

for.body.lr.ph.split.us:                          ; preds = %for.body.lr.ph
  br i1 %cmp.not.us18, label %if.end.us, label %return

for.body.us:                                      ; preds = %if.end.us
  %vtable2.us = load ptr, ptr %iter, align 8
  %vfn3.us = getelementptr inbounds i8, ptr %vtable2.us, i64 32
  %4 = load ptr, ptr %vfn3.us, align 8
  call void %4(ptr noundef nonnull align 8 dereferenceable(8) %iter, ptr noundef nonnull %min, ptr noundef nonnull %max, ptr noundef nonnull %count)
  %5 = load i32, ptr %min, align 4
  %add.us = add nsw i32 %5, 1
  %6 = load i32, ptr %max, align 4
  %cmp.not.us = icmp eq i32 %add.us, %6
  br i1 %cmp.not.us, label %if.end.us, label %return, !llvm.loop !9

if.end.us:                                        ; preds = %for.body.lr.ph.split.us, %for.body.us
  %7 = load i32, ptr %count, align 4
  %call5.us = call noundef nonnull align 4 dereferenceable(4) ptr @_ZNSt3mapIiiSt4lessIiESaISt4pairIKiiEEEixERS3_(ptr noundef nonnull align 8 dereferenceable(48) %sample_counts_, ptr noundef nonnull align 4 dereferenceable(4) %min)
  %8 = load i32, ptr %call5.us, align 4
  %add6.us = add nsw i32 %8, %7
  store i32 %add6.us, ptr %call5.us, align 4
  %vtable7.us = load ptr, ptr %iter, align 8
  %vfn8.us = getelementptr inbounds i8, ptr %vtable7.us, i64 24
  %9 = load ptr, ptr %vfn8.us, align 8
  call void %9(ptr noundef nonnull align 8 dereferenceable(8) %iter)
  %vtable.us = load ptr, ptr %iter, align 8
  %vfn.us = getelementptr inbounds i8, ptr %vtable.us, i64 16
  %10 = load ptr, ptr %vfn.us, align 8
  %call.us = call noundef zeroext i1 %10(ptr noundef nonnull align 8 dereferenceable(8) %iter)
  br i1 %call.us, label %return, label %for.body.us, !llvm.loop !9

for.body.lr.ph.split:                             ; preds = %for.body.lr.ph
  br i1 %cmp.not.us18, label %if.end, label %return

for.body:                                         ; preds = %if.end
  %vtable2 = load ptr, ptr %iter, align 8
  %vfn3 = getelementptr inbounds i8, ptr %vtable2, i64 32
  %11 = load ptr, ptr %vfn3, align 8
  call void %11(ptr noundef nonnull align 8 dereferenceable(8) %iter, ptr noundef nonnull %min, ptr noundef nonnull %max, ptr noundef nonnull %count)
  %12 = load i32, ptr %min, align 4
  %add = add nsw i32 %12, 1
  %13 = load i32, ptr %max, align 4
  %cmp.not = icmp eq i32 %add, %13
  br i1 %cmp.not, label %if.end, label %return, !llvm.loop !9

if.end:                                           ; preds = %for.body.lr.ph.split, %for.body
  %14 = load i32, ptr %count, align 4
  %call5 = call noundef nonnull align 4 dereferenceable(4) ptr @_ZNSt3mapIiiSt4lessIiESaISt4pairIKiiEEEixERS3_(ptr noundef nonnull align 8 dereferenceable(48) %sample_counts_, ptr noundef nonnull align 4 dereferenceable(4) %min)
  %15 = load i32, ptr %call5, align 4
  %add6 = sub i32 %15, %14
  store i32 %add6, ptr %call5, align 4
  %vtable7 = load ptr, ptr %iter, align 8
  %vfn8 = getelementptr inbounds i8, ptr %vtable7, i64 24
  %16 = load ptr, ptr %vfn8, align 8
  call void %16(ptr noundef nonnull align 8 dereferenceable(8) %iter)
  %vtable = load ptr, ptr %iter, align 8
  %vfn = getelementptr inbounds i8, ptr %vtable, i64 16
  %17 = load ptr, ptr %vfn, align 8
  %call = call noundef zeroext i1 %17(ptr noundef nonnull align 8 dereferenceable(8) %iter)
  br i1 %call, label %return, label %for.body, !llvm.loop !9

return:                                           ; preds = %for.body, %if.end, %for.body.us, %if.end.us, %for.body.lr.ph.split.us, %for.body.lr.ph.split, %entry
  %call.lcssa = phi i1 [ true, %entry ], [ false, %for.body.lr.ph.split.us ], [ false, %for.body.lr.ph.split ], [ %call.us, %if.end.us ], [ %call.us, %for.body.us ], [ %call, %if.end ], [ %call, %for.body ]
  ret i1 %call.lcssa
}